target datalayout = "e-m:e-p270:32:32-p271:32:32-p272:64:64-i64:64-i128:128-f80:128-n8:16:32:64-S128"
target triple = "x86_64-pc-linux-gnu"

%struct.timeval = type { i64, i64 }
%struct._logentry = type { i32, i8, i16, i64, %struct.timeval, i32, [0 x %union.anon] }
%union.anon = type { i8 }
%struct.logentry_eviction = type { i64, i32, i32, i16, i8, i8, [0 x i8] }

@.str.22 = private unnamed_addr constant [83 x i8] c"ts=%lld.%d gid=%llu type=eviction key=%s fetch=%s ttl=%lld la=%d clsid=%u size=%d\0A\00", align 1
@.str.23 = private unnamed_addr constant [4 x i8] c"yes\00", align 1
@.str.24 = private unnamed_addr constant [3 x i8] c"no\00", align 1

; Function Attrs: nounwind uwtable
define internal i32 @_logger_parse_ee(ptr noundef %0, ptr noundef %1) #0 {
  %3 = alloca ptr, align 8
  %4 = alloca ptr, align 8
  %5 = alloca i32, align 4
  %6 = alloca [751 x i8], align 16
  %7 = alloca ptr, align 8
  store ptr %0, ptr %3, align 8, !tbaa !33
  store ptr %1, ptr %4, align 8, !tbaa !63
  call void @llvm.lifetime.start.p0(i64 4, ptr %5) #11
  call void @llvm.lifetime.start.p0(i64 751, ptr %6) #11
  call void @llvm.lifetime.start.p0(i64 8, ptr %7) #11
  %8 = load ptr, ptr %3, align 8, !tbaa !33
  %9 = getelementptr inbounds nuw %struct._logentry, ptr %8, i32 0, i32 6
  %10 = getelementptr inbounds [0 x %union.anon], ptr %9, i64 0, i64 0
  store ptr %10, ptr %7, align 8, !tbaa !112
  %11 = load ptr, ptr %7, align 8, !tbaa !112
  %12 = getelementptr inbounds nuw %struct.logentry_eviction, ptr %11, i32 0, i32 6
  %13 = getelementptr inbounds [0 x i8], ptr %12, i64 0, i64 0
  %14 = getelementptr inbounds [751 x i8], ptr %6, i64 0, i64 0
  %15 = load ptr, ptr %7, align 8, !tbaa !112
  %16 = getelementptr inbounds nuw %struct.logentry_eviction, ptr %15, i32 0, i32 4
  %17 = load i8, ptr %16, align 2, !tbaa !36
  %18 = zext i8 %17 to i64
  %19 = call zeroext i1 @uriencode(ptr noundef %13, ptr noundef %14, i64 noundef %18, i64 noundef 751)
  %20 = load ptr, ptr %4, align 8, !tbaa !63
  %21 = load ptr, ptr %3, align 8, !tbaa !33
  %22 = getelementptr inbounds nuw %struct._logentry, ptr %21, i32 0, i32 4
  %23 = getelementptr inbounds nuw %struct.timeval, ptr %22, i32 0, i32 0
  %24 = load i64, ptr %23, align 8, !tbaa !108
  %25 = load ptr, ptr %3, align 8, !tbaa !33
  %26 = getelementptr inbounds nuw %struct._logentry, ptr %25, i32 0, i32 4
  %27 = getelementptr inbounds nuw %struct.timeval, ptr %26, i32 0, i32 1
  %28 = load i64, ptr %27, align 8, !tbaa !109
  %29 = trunc i64 %28 to i32
  %30 = load ptr, ptr %3, align 8, !tbaa !33
  %31 = getelementptr inbounds nuw %struct._logentry, ptr %30, i32 0, i32 3
  %32 = load i64, ptr %31, align 8, !tbaa !4
  %33 = getelementptr inbounds [751 x i8], ptr %6, i64 0, i64 0
  %34 = load ptr, ptr %7, align 8, !tbaa !112
  %35 = getelementptr inbounds nuw %struct.logentry_eviction, ptr %34, i32 0, i32 3
  %36 = load i16, ptr %35, align 8, !tbaa !38
  %37 = zext i16 %36 to i32
  %38 = and i32 %37, 8
  %39 = icmp ne i32 %38, 0
  %40 = select i1 %39, ptr @.str.23, ptr @.str.24
  %41 = load ptr, ptr %7, align 8, !tbaa !112
  %42 = getelementptr inbounds nuw %struct.logentry_eviction, ptr %41, i32 0, i32 0
  %43 = load i64, ptr %42, align 8, !tbaa !114
  %44 = load ptr, ptr %7, align 8, !tbaa !112
  %45 = getelementptr inbounds nuw %struct.logentry_eviction, ptr %44, i32 0, i32 2
  %46 = load i32, ptr %45, align 4, !tbaa !11
  %47 = load ptr, ptr %7, align 8, !tbaa !112
  %48 = getelementptr inbounds nuw %struct.logentry_eviction, ptr %47, i32 0, i32 5
  %49 = load i8, ptr %48, align 1, !tbaa !36
  %50 = zext i8 %49 to i32
  %51 = load ptr, ptr %7, align 8, !tbaa !112
  %52 = getelementptr inbounds nuw %struct.logentry_eviction, ptr %51, i32 0, i32 1
  %53 = load i32, ptr %52, align 8, !tbaa !11
  %54 = icmp sgt i32 %53, 0
  br i1 %54, label %55, label %60

55:                                               ; preds = %2
  %56 = load ptr, ptr %7, align 8, !tbaa !112
  %57 = getelementptr inbounds nuw %struct.logentry_eviction, ptr %56, i32 0, i32 1
  %58 = load i32, ptr %57, align 8, !tbaa !11
  %59 = sub nsw i32 %58, 2
  br label %61

60:                                               ; preds = %2
  br label %61

61:                                               ; preds = %60, %55
  %62 = phi i32 [ %59, %55 ], [ 0, %60 ]
  %63 = call i32 (ptr, i64, ptr, ...) @snprintf(ptr noundef %20, i64 noundef 4096, ptr noundef @.str.22, i64 noundef %24, i32 noundef %29, i64 noundef %32, ptr noundef %33, ptr noundef %40, i64 noundef %43, i32 noundef %46, i32 noundef %50, i32 noundef %62) #11
  store i32 %63, ptr %5, align 4, !tbaa !11
  %64 = load i32, ptr %5, align 4, !tbaa !11
  call void @llvm.lifetime.end.p0(i64 8, ptr %7) #11
  call void @llvm.lifetime.end.p0(i64 751, ptr %6) #11
  call void @llvm.lifetime.end.p0(i64 4, ptr %5) #11
  ret i32 %64
}