; Function Attrs: nounwind uwtable
define internal noundef i32 @_logger_parse_ee(ptr noundef %0, ptr noundef writeonly captures(none) %1) #1 {
  %3 = alloca [751 x i8], align 16
  call void @llvm.lifetime.start.p0(i64 751, ptr nonnull %3) #18
  %4 = getelementptr inbounds nuw i8, ptr %0, i64 36
  %5 = getelementptr inbounds nuw i8, ptr %0, i64 56
  %6 = getelementptr inbounds nuw i8, ptr %0, i64 54
  %7 = load i8, ptr %6, align 2, !tbaa !31
  %8 = zext i8 %7 to i64
  %9 = call zeroext i1 @uriencode(ptr noundef nonnull %5, ptr noundef nonnull %3, i64 noundef %8, i64 noundef 751) #18
  %10 = getelementptr inbounds nuw i8, ptr %0, i64 16
  %11 = load i64, ptr %10, align 8, !tbaa !91
  %12 = getelementptr inbounds nuw i8, ptr %0, i64 24
  %13 = load i64, ptr %12, align 8, !tbaa !92
  %14 = getelementptr inbounds nuw i8, ptr %0, i64 8
  %15 = load i64, ptr %14, align 8, !tbaa !13
  %16 = getelementptr inbounds nuw i8, ptr %0, i64 52
  %17 = load i16, ptr %16, align 8, !tbaa !33
  %18 = load i64, ptr %4, align 8, !tbaa !93
  %19 = getelementptr inbounds nuw i8, ptr %0, i64 48
  %20 = load i32, ptr %19, align 4, !tbaa !9
  %21 = getelementptr inbounds nuw i8, ptr %0, i64 55
  %22 = load i8, ptr %21, align 1, !tbaa !31
  %23 = getelementptr inbounds nuw i8, ptr %0, i64 44
  %24 = load i32, ptr %23, align 8, !tbaa !9
  %25 = icmp sgt i32 %24, 0
  %26 = add nsw i32 %24, -2
  %spec.select = select i1 %25, i32 %26, i32 0
  %27 = zext i8 %22 to i32
  %28 = and i16 %17, 8
  %.not = icmp eq i16 %28, 0
  %29 = select i1 %.not, ptr @.str.24, ptr @.str.23
  %30 = trunc i64 %13 to i32
  %31 = call i32 (ptr, i64, ptr, ...) @snprintf(ptr noundef nonnull dereferenceable(1) %1, i64 noundef 4096, ptr noundef nonnull @.str.22, i64 noundef %11, i32 noundef %30, i64 noundef %15, ptr noundef nonnull %3, ptr noundef nonnull %29, i64 noundef %18, i32 noundef %20, i32 noundef %27, i32 noundef %spec.select) #18
  call void @llvm.lifetime.end.p0(i64 751, ptr nonnull %3) #18
  ret i32 %31
}